target datalayout = "e-m:e-p270:32:32-p271:32:32-p272:64:64-i64:64-i128:128-f80:128-n8:16:32:64-S128"
target triple = "x86_64-pc-linux-gnu"

%"class.marisa::grimoire::trie::Tail" = type { %"class.marisa::grimoire::vector::Vector", %"class.marisa::grimoire::vector::BitVector" }
%"class.marisa::grimoire::vector::Vector" = type <{ %"class.marisa::scoped_array", ptr, ptr, i64, i64, i8, [7 x i8] }>
%"class.marisa::scoped_array" = type { ptr }
%"class.marisa::grimoire::vector::BitVector" = type { %"class.marisa::grimoire::vector::Vector.0", i64, i64, %"class.marisa::grimoire::vector::Vector.2", %"class.marisa::grimoire::vector::Vector.4", %"class.marisa::grimoire::vector::Vector.4" }
%"class.marisa::grimoire::vector::Vector.0" = type <{ %"class.marisa::scoped_array", ptr, ptr, i64, i64, i8, [7 x i8] }>
%"class.marisa::grimoire::vector::Vector.2" = type <{ %"class.marisa::scoped_array", ptr, ptr, i64, i64, i8, [7 x i8] }>
%"class.marisa::grimoire::vector::Vector.4" = type <{ %"class.marisa::scoped_array", ptr, ptr, i64, i64, i8, [7 x i8] }>

; Function Attrs: mustprogress nounwind uwtable
define linkonce_odr void @_ZN6marisa12scoped_arrayIcED2Ev(ptr noundef nonnull align 8 dereferenceable(8) %0) unnamed_addr #5 comdat align 2 {
  %2 = alloca ptr, align 8
  store ptr %0, ptr %2, align 8
  %3 = load ptr, ptr %2, align 8
  %4 = getelementptr inbounds %"class.marisa::scoped_array", ptr %3, i32 0, i32 0
  %5 = load ptr, ptr %4, align 8
  %6 = icmp eq ptr %5, null
  br i1 %6, label %8, label %7

7:                                                ; preds = %1
  call void @_ZdaPv(ptr noundef %5) #10
  br label %8

8:                                                ; preds = %7, %1
  ret void
}

; Function Attrs: mustprogress nounwind uwtable
define linkonce_odr void @_ZN6marisa8grimoire6vector6VectorImED2Ev(ptr noundef nonnull align 8 dereferenceable(41) %0) unnamed_addr #5 comdat align 2 {
  %2 = alloca ptr, align 8
  %3 = alloca i64, align 8
  store ptr %0, ptr %2, align 8
  %4 = load ptr, ptr %2, align 8
  %5 = getelementptr inbounds %"class.marisa::grimoire::vector::Vector.0", ptr %4, i32 0, i32 1
  %6 = load ptr, ptr %5, align 8
  %7 = icmp ne ptr %6, null
  br i1 %7, label %8, label %19

8:                                                ; preds = %1
  store i64 0, ptr %3, align 8
  br label %9

9:                                                ; preds = %15, %8
  %10 = load i64, ptr %3, align 8
  %11 = getelementptr inbounds %"class.marisa::grimoire::vector::Vector.0", ptr %4, i32 0, i32 3
  %12 = load i64, ptr %11, align 8
  %13 = icmp ult i64 %10, %12
  br i1 %13, label %14, label %18

14:                                               ; preds = %9
  br label %15

15:                                               ; preds = %14
  %16 = load i64, ptr %3, align 8
  %17 = add i64 %16, 1
  store i64 %17, ptr %3, align 8
  br label %9, !llvm.loop !25

18:                                               ; preds = %9
  br label %19

19:                                               ; preds = %18, %1
  %20 = getelementptr inbounds %"class.marisa::grimoire::vector::Vector.0", ptr %4, i32 0, i32 0
  call void @_ZN6marisa12scoped_arrayIcED2Ev(ptr noundef nonnull align 8 dereferenceable(8) %20) #3
  ret void
}

; Function Attrs: mustprogress nounwind uwtable
define linkonce_odr void @_ZN6marisa8grimoire6vector6VectorINS1_9RankIndexEED2Ev(ptr noundef nonnull align 8 dereferenceable(41) %0) unnamed_addr #5 comdat align 2 {
  %2 = alloca ptr, align 8
  %3 = alloca i64, align 8
  store ptr %0, ptr %2, align 8
  %4 = load ptr, ptr %2, align 8
  %5 = getelementptr inbounds %"class.marisa::grimoire::vector::Vector.2", ptr %4, i32 0, i32 1
  %6 = load ptr, ptr %5, align 8
  %7 = icmp ne ptr %6, null
  br i1 %7, label %8, label %19

8:                                                ; preds = %1
  store i64 0, ptr %3, align 8
  br label %9

9:                                                ; preds = %15, %8
  %10 = load i64, ptr %3, align 8
  %11 = getelementptr inbounds %"class.marisa::grimoire::vector::Vector.2", ptr %4, i32 0, i32 3
  %12 = load i64, ptr %11, align 8
  %13 = icmp ult i64 %10, %12
  br i1 %13, label %14, label %18

14:                                               ; preds = %9
  br label %15

15:                                               ; preds = %14
  %16 = load i64, ptr %3, align 8
  %17 = add i64 %16, 1
  store i64 %17, ptr %3, align 8
  br label %9, !llvm.loop !24

18:                                               ; preds = %9
  br label %19

19:                                               ; preds = %18, %1
  %20 = getelementptr inbounds %"class.marisa::grimoire::vector::Vector.2", ptr %4, i32 0, i32 0
  call void @_ZN6marisa12scoped_arrayIcED2Ev(ptr noundef nonnull align 8 dereferenceable(8) %20) #3
  ret void
}

; Function Attrs: mustprogress nounwind uwtable
define linkonce_odr void @_ZN6marisa8grimoire6vector6VectorIjED2Ev(ptr noundef nonnull align 8 dereferenceable(41) %0) unnamed_addr #5 comdat align 2 {
  %2 = alloca ptr, align 8
  %3 = alloca i64, align 8
  store ptr %0, ptr %2, align 8
  %4 = load ptr, ptr %2, align 8
  %5 = getelementptr inbounds %"class.marisa::grimoire::vector::Vector.4", ptr %4, i32 0, i32 1
  %6 = load ptr, ptr %5, align 8
  %7 = icmp ne ptr %6, null
  br i1 %7, label %8, label %19

8:                                                ; preds = %1
  store i64 0, ptr %3, align 8
  br label %9

9:                                                ; preds = %15, %8
  %10 = load i64, ptr %3, align 8
  %11 = getelementptr inbounds %"class.marisa::grimoire::vector::Vector.4", ptr %4, i32 0, i32 3
  %12 = load i64, ptr %11, align 8
  %13 = icmp ult i64 %10, %12
  br i1 %13, label %14, label %18

14:                                               ; preds = %9
  br label %15

15:                                               ; preds = %14
  %16 = load i64, ptr %3, align 8
  %17 = add i64 %16, 1
  store i64 %17, ptr %3, align 8
  br label %9, !llvm.loop !23

18:                                               ; preds = %9
  br label %19

19:                                               ; preds = %18, %1
  %20 = getelementptr inbounds %"class.marisa::grimoire::vector::Vector.4", ptr %4, i32 0, i32 0
  call void @_ZN6marisa12scoped_arrayIcED2Ev(ptr noundef nonnull align 8 dereferenceable(8) %20) #3
  ret void
}

; Function Attrs: mustprogress uwtable
define linkonce_odr void @_ZN6marisa8grimoire6vector6VectorIjEC2Ev(ptr noundef nonnull align 8 dereferenceable(41) %0) unnamed_addr #4 comdat align 2 {
  %2 = alloca ptr, align 8
  store ptr %0, ptr %2, align 8
  %3 = load ptr, ptr %2, align 8
  %4 = getelementptr inbounds %"class.marisa::grimoire::vector::Vector.4", ptr %3, i32 0, i32 0
  call void @_ZN6marisa12scoped_arrayIcEC2Ev(ptr noundef nonnull align 8 dereferenceable(8) %4)
  %5 = getelementptr inbounds %"class.marisa::grimoire::vector::Vector.4", ptr %3, i32 0, i32 1
  store ptr null, ptr %5, align 8
  %6 = getelementptr inbounds %"class.marisa::grimoire::vector::Vector.4", ptr %3, i32 0, i32 2
  store ptr null, ptr %6, align 8
  %7 = getelementptr inbounds %"class.marisa::grimoire::vector::Vector.4", ptr %3, i32 0, i32 3
  store i64 0, ptr %7, align 8
  %8 = getelementptr inbounds %"class.marisa::grimoire::vector::Vector.4", ptr %3, i32 0, i32 4
  store i64 0, ptr %8, align 8
  %9 = getelementptr inbounds %"class.marisa::grimoire::vector::Vector.4", ptr %3, i32 0, i32 5
  store i8 0, ptr %9, align 8
  ret void
}

; Function Attrs: mustprogress uwtable
define linkonce_odr void @_ZN6marisa8grimoire6vector6VectorINS1_9RankIndexEEC2Ev(ptr noundef nonnull align 8 dereferenceable(41) %0) unnamed_addr #4 comdat align 2 {
  %2 = alloca ptr, align 8
  store ptr %0, ptr %2, align 8
  %3 = load ptr, ptr %2, align 8
  %4 = getelementptr inbounds %"class.marisa::grimoire::vector::Vector.2", ptr %3, i32 0, i32 0
  call void @_ZN6marisa12scoped_arrayIcEC2Ev(ptr noundef nonnull align 8 dereferenceable(8) %4)
  %5 = getelementptr inbounds %"class.marisa::grimoire::vector::Vector.2", ptr %3, i32 0, i32 1
  store ptr null, ptr %5, align 8
  %6 = getelementptr inbounds %"class.marisa::grimoire::vector::Vector.2", ptr %3, i32 0, i32 2
  store ptr null, ptr %6, align 8
  %7 = getelementptr inbounds %"class.marisa::grimoire::vector::Vector.2", ptr %3, i32 0, i32 3
  store i64 0, ptr %7, align 8
  %8 = getelementptr inbounds %"class.marisa::grimoire::vector::Vector.2", ptr %3, i32 0, i32 4
  store i64 0, ptr %8, align 8
  %9 = getelementptr inbounds %"class.marisa::grimoire::vector::Vector.2", ptr %3, i32 0, i32 5
  store i8 0, ptr %9, align 8
  ret void
}

; Function Attrs: mustprogress uwtable
define linkonce_odr void @_ZN6marisa8grimoire6vector6VectorImEC2Ev(ptr noundef nonnull align 8 dereferenceable(41) %0) unnamed_addr #4 comdat align 2 {
  %2 = alloca ptr, align 8
  store ptr %0, ptr %2, align 8
  %3 = load ptr, ptr %2, align 8
  %4 = getelementptr inbounds %"class.marisa::grimoire::vector::Vector.0", ptr %3, i32 0, i32 0
  call void @_ZN6marisa12scoped_arrayIcEC2Ev(ptr noundef nonnull align 8 dereferenceable(8) %4)
  %5 = getelementptr inbounds %"class.marisa::grimoire::vector::Vector.0", ptr %3, i32 0, i32 1
  store ptr null, ptr %5, align 8
  %6 = getelementptr inbounds %"class.marisa::grimoire::vector::Vector.0", ptr %3, i32 0, i32 2
  store ptr null, ptr %6, align 8
  %7 = getelementptr inbounds %"class.marisa::grimoire::vector::Vector.0", ptr %3, i32 0, i32 3
  store i64 0, ptr %7, align 8
  %8 = getelementptr inbounds %"class.marisa::grimoire::vector::Vector.0", ptr %3, i32 0, i32 4
  store i64 0, ptr %8, align 8
  %9 = getelementptr inbounds %"class.marisa::grimoire::vector::Vector.0", ptr %3, i32 0, i32 5
  store i8 0, ptr %9, align 8
  ret void
}

; Function Attrs: mustprogress nounwind uwtable
define linkonce_odr void @_ZN6marisa12scoped_arrayIcEC2Ev(ptr noundef nonnull align 8 dereferenceable(8) %0) unnamed_addr #5 comdat align 2 {
  %2 = alloca ptr, align 8
  store ptr %0, ptr %2, align 8
  %3 = load ptr, ptr %2, align 8
  %4 = getelementptr inbounds %"class.marisa::scoped_array", ptr %3, i32 0, i32 0
  store ptr null, ptr %4, align 8
  ret void
}

; Function Attrs: mustprogress nounwind uwtable
define linkonce_odr void @_ZN6marisa8grimoire6vector6VectorIcED2Ev(ptr noundef nonnull align 8 dereferenceable(41) %0) unnamed_addr #5 comdat align 2 {
  %2 = alloca ptr, align 8
  %3 = alloca i64, align 8
  store ptr %0, ptr %2, align 8
  %4 = load ptr, ptr %2, align 8
  %5 = getelementptr inbounds %"class.marisa::grimoire::vector::Vector", ptr %4, i32 0, i32 1
  %6 = load ptr, ptr %5, align 8
  %7 = icmp ne ptr %6, null
  br i1 %7, label %8, label %19

8:                                                ; preds = %1
  store i64 0, ptr %3, align 8
  br label %9

9:                                                ; preds = %15, %8
  %10 = load i64, ptr %3, align 8
  %11 = getelementptr inbounds %"class.marisa::grimoire::vector::Vector", ptr %4, i32 0, i32 3
  %12 = load i64, ptr %11, align 8
  %13 = icmp ult i64 %10, %12
  br i1 %13, label %14, label %18

14:                                               ; preds = %9
  br label %15

15:                                               ; preds = %14
  %16 = load i64, ptr %3, align 8
  %17 = add i64 %16, 1
  store i64 %17, ptr %3, align 8
  br label %9, !llvm.loop !4

18:                                               ; preds = %9
  br label %19

19:                                               ; preds = %18, %1
  %20 = getelementptr inbounds %"class.marisa::grimoire::vector::Vector", ptr %4, i32 0, i32 0
  call void @_ZN6marisa12scoped_arrayIcED2Ev(ptr noundef nonnull align 8 dereferenceable(8) %20) #3
  ret void
}

; Function Attrs: mustprogress uwtable
define linkonce_odr void @_ZN6marisa8grimoire6vector9BitVectorC2Ev(ptr noundef nonnull align 8 dereferenceable(208) %0) unnamed_addr #4 comdat align 2 personality ptr @__gxx_personality_v0 {
  %2 = alloca ptr, align 8
  %3 = alloca ptr, align 8
  %4 = alloca i32, align 4
  store ptr %0, ptr %2, align 8
  %5 = load ptr, ptr %2, align 8
  %6 = getelementptr inbounds %"class.marisa::grimoire::vector::BitVector", ptr %5, i32 0, i32 0
  call void @_ZN6marisa8grimoire6vector6VectorImEC2Ev(ptr noundef nonnull align 8 dereferenceable(41) %6)
  %7 = getelementptr inbounds %"class.marisa::grimoire::vector::BitVector", ptr %5, i32 0, i32 1
  store i64 0, ptr %7, align 8
  %8 = getelementptr inbounds %"class.marisa::grimoire::vector::BitVector", ptr %5, i32 0, i32 2
  store i64 0, ptr %8, align 8
  %9 = getelementptr inbounds %"class.marisa::grimoire::vector::BitVector", ptr %5, i32 0, i32 3
  invoke void @_ZN6marisa8grimoire6vector6VectorINS1_9RankIndexEEC2Ev(ptr noundef nonnull align 8 dereferenceable(41) %9)
          to label %10 unwind label %15

10:                                               ; preds = %1
  %11 = getelementptr inbounds %"class.marisa::grimoire::vector::BitVector", ptr %5, i32 0, i32 4
  invoke void @_ZN6marisa8grimoire6vector6VectorIjEC2Ev(ptr noundef nonnull align 8 dereferenceable(41) %11)
          to label %12 unwind label %19

12:                                               ; preds = %10
  %13 = getelementptr inbounds %"class.marisa::grimoire::vector::BitVector", ptr %5, i32 0, i32 5
  invoke void @_ZN6marisa8grimoire6vector6VectorIjEC2Ev(ptr noundef nonnull align 8 dereferenceable(41) %13)
          to label %14 unwind label %23

14:                                               ; preds = %12
  ret void

15:                                               ; preds = %1
  %16 = landingpad { ptr, i32 }
          cleanup
  %17 = extractvalue { ptr, i32 } %16, 0
  store ptr %17, ptr %3, align 8
  %18 = extractvalue { ptr, i32 } %16, 1
  store i32 %18, ptr %4, align 4
  br label %28

19:                                               ; preds = %10
  %20 = landingpad { ptr, i32 }
          cleanup
  %21 = extractvalue { ptr, i32 } %20, 0
  store ptr %21, ptr %3, align 8
  %22 = extractvalue { ptr, i32 } %20, 1
  store i32 %22, ptr %4, align 4
  br label %27

23:                                               ; preds = %12
  %24 = landingpad { ptr, i32 }
          cleanup
  %25 = extractvalue { ptr, i32 } %24, 0
  store ptr %25, ptr %3, align 8
  %26 = extractvalue { ptr, i32 } %24, 1
  store i32 %26, ptr %4, align 4
  call void @_ZN6marisa8grimoire6vector6VectorIjED2Ev(ptr noundef nonnull align 8 dereferenceable(41) %11) #3
  br label %27

27:                                               ; preds = %23, %19
  call void @_ZN6marisa8grimoire6vector6VectorINS1_9RankIndexEED2Ev(ptr noundef nonnull align 8 dereferenceable(41) %9) #3
  br label %28

28:                                               ; preds = %27, %15
  call void @_ZN6marisa8grimoire6vector6VectorImED2Ev(ptr noundef nonnull align 8 dereferenceable(41) %6) #3
  br label %29

29:                                               ; preds = %28
  %30 = load ptr, ptr %3, align 8
  %31 = load i32, ptr %4, align 4
  %32 = insertvalue { ptr, i32 } poison, ptr %30, 0
  %33 = insertvalue { ptr, i32 } %32, i32 %31, 1
  resume { ptr, i32 } %33
}

; Function Attrs: mustprogress uwtable
define linkonce_odr void @_ZN6marisa8grimoire6vector6VectorIcEC2Ev(ptr noundef nonnull align 8 dereferenceable(41) %0) unnamed_addr #4 comdat align 2 {
  %2 = alloca ptr, align 8
  store ptr %0, ptr %2, align 8
  %3 = load ptr, ptr %2, align 8
  %4 = getelementptr inbounds %"class.marisa::grimoire::vector::Vector", ptr %3, i32 0, i32 0
  call void @_ZN6marisa12scoped_arrayIcEC2Ev(ptr noundef nonnull align 8 dereferenceable(8) %4)
  %5 = getelementptr inbounds %"class.marisa::grimoire::vector::Vector", ptr %3, i32 0, i32 1
  store ptr null, ptr %5, align 8
  %6 = getelementptr inbounds %"class.marisa::grimoire::vector::Vector", ptr %3, i32 0, i32 2
  store ptr null, ptr %6, align 8
  %7 = getelementptr inbounds %"class.marisa::grimoire::vector::Vector", ptr %3, i32 0, i32 3
  store i64 0, ptr %7, align 8
  %8 = getelementptr inbounds %"class.marisa::grimoire::vector::Vector", ptr %3, i32 0, i32 4
  store i64 0, ptr %8, align 8
  %9 = getelementptr inbounds %"class.marisa::grimoire::vector::Vector", ptr %3, i32 0, i32 5
  store i8 0, ptr %9, align 8
  ret void
}

; Function Attrs: mustprogress uwtable
define void @_ZN6marisa8grimoire4trie4TailC2Ev(ptr noundef nonnull align 8 dereferenceable(256) %0) unnamed_addr #4 align 2 personality ptr @__gxx_personality_v0 {
  %2 = alloca ptr, align 8
  %3 = alloca ptr, align 8
  %4 = alloca i32, align 4
  store ptr %0, ptr %2, align 8
  %5 = load ptr, ptr %2, align 8
  %6 = getelementptr inbounds %"class.marisa::grimoire::trie::Tail", ptr %5, i32 0, i32 0
  call void @_ZN6marisa8grimoire6vector6VectorIcEC2Ev(ptr noundef nonnull align 8 dereferenceable(41) %6)
  %7 = getelementptr inbounds %"class.marisa::grimoire::trie::Tail", ptr %5, i32 0, i32 1
  invoke void @_ZN6marisa8grimoire6vector9BitVectorC2Ev(ptr noundef nonnull align 8 dereferenceable(208) %7)
          to label %8 unwind label %9

8:                                                ; preds = %1
  ret void

9:                                                ; preds = %1
  %10 = landingpad { ptr, i32 }
          cleanup
  %11 = extractvalue { ptr, i32 } %10, 0
  store ptr %11, ptr %3, align 8
  %12 = extractvalue { ptr, i32 } %10, 1
  store i32 %12, ptr %4, align 4
  call void @_ZN6marisa8grimoire6vector6VectorIcED2Ev(ptr noundef nonnull align 8 dereferenceable(41) %6) #3
  br label %13

13:                                               ; preds = %9
  %14 = load ptr, ptr %3, align 8
  %15 = load i32, ptr %4, align 4
  %16 = insertvalue { ptr, i32 } poison, ptr %14, 0
  %17 = insertvalue { ptr, i32 } %16, i32 %15, 1
  resume { ptr, i32 } %17
}