; Function Attrs: mustprogress nofree norecurse nosync nounwind willreturn memory(argmem: write) uwtable
define void @_ZN6marisa8grimoire4trie4TailC2Ev(ptr nocapture noundef nonnull writeonly align 8 dereferenceable(256) %0) unnamed_addr #3 align 2 personality ptr @__gxx_personality_v0 {
  tail call void @llvm.memset.p0.i64(ptr noundef nonnull align 8 dereferenceable(41) %0, i8 0, i64 41, i1 false)
  %2 = getelementptr inbounds i8, ptr %0, i64 48
  tail call void @llvm.memset.p0.i64(ptr noundef nonnull align 8 dereferenceable(41) %2, i8 0, i64 41, i1 false)
  %3 = getelementptr inbounds i8, ptr %0, i64 96
  %4 = getelementptr inbounds i8, ptr %0, i64 160
  tail call void @llvm.memset.p0.i64(ptr noundef nonnull align 8 dereferenceable(41) %4, i8 0, i64 41, i1 false)
  %5 = getelementptr inbounds i8, ptr %0, i64 208
  tail call void @llvm.memset.p0.i64(ptr noundef nonnull align 8 dereferenceable(41) %5, i8 0, i64 41, i1 false)
  tail call void @llvm.memset.p0.i64(ptr noundef nonnull align 8 dereferenceable(57) %3, i8 0, i64 57, i1 false)
  ret void
}